target datalayout = "e-m:e-p270:32:32-p271:32:32-p272:64:64-i64:64-i128:128-f80:128-n8:16:32:64-S128"
target triple = "x86_64-pc-linux-gnu"

%"class.ue2::ComponentRepeat" = type { %"class.ue2::Component", i32, %"class.std::unique_ptr", i32, i32, %"class.std::vector", %"class.std::vector", i32, i32 }
%"class.ue2::Component" = type { ptr, i32, i32 }
%"class.std::unique_ptr" = type { %"struct.std::__uniq_ptr_data" }
%"struct.std::__uniq_ptr_data" = type { %"class.std::__uniq_ptr_impl" }
%"class.std::__uniq_ptr_impl" = type { %"class.std::tuple" }
%"class.std::tuple" = type { %"struct.std::_Tuple_impl" }
%"struct.std::_Tuple_impl" = type { %"struct.std::_Head_base.1" }
%"struct.std::_Head_base.1" = type { ptr }
%"class.std::vector" = type { %"struct.std::_Vector_base" }
%"struct.std::_Vector_base" = type { %"struct.std::_Vector_base<std::vector<ue2::PositionInfo>, std::allocator<std::vector<ue2::PositionInfo>>>::_Vector_impl" }
%"struct.std::_Vector_base<std::vector<ue2::PositionInfo>, std::allocator<std::vector<ue2::PositionInfo>>>::_Vector_impl" = type { %"struct.std::_Vector_base<std::vector<ue2::PositionInfo>, std::allocator<std::vector<ue2::PositionInfo>>>::_Vector_impl_data" }
%"struct.std::_Vector_base<std::vector<ue2::PositionInfo>, std::allocator<std::vector<ue2::PositionInfo>>>::_Vector_impl_data" = type { ptr, ptr, ptr }

; Function Attrs: mustprogress nounwind uwtable
define hidden void @_ZN3ue215ComponentRepeat8optimiseEb(ptr noundef nonnull align 8 dereferenceable(96) %0, i1 noundef zeroext %1) unnamed_addr #2 align 2 {
  %3 = alloca ptr, align 8
  %4 = alloca i8, align 1
  store ptr %0, ptr %3, align 8
  %5 = zext i1 %1 to i8
  store i8 %5, ptr %4, align 1
  %6 = load ptr, ptr %3, align 8
  br label %7

7:                                                ; preds = %2
  br label %8

8:                                                ; preds = %7
  %9 = load i8, ptr %4, align 1, !range !9, !noundef !10
  %10 = trunc i8 %9 to i1
  br i1 %10, label %12, label %11

11:                                               ; preds = %8
  br label %18

12:                                               ; preds = %8
  br label %13

13:                                               ; preds = %12
  br label %14

14:                                               ; preds = %13
  %15 = getelementptr inbounds nuw %"class.ue2::ComponentRepeat", ptr %6, i32 0, i32 3
  %16 = load i32, ptr %15, align 8
  %17 = getelementptr inbounds nuw %"class.ue2::ComponentRepeat", ptr %6, i32 0, i32 4
  store i32 %16, ptr %17, align 4
  br label %18

18:                                               ; preds = %14, %11
  ret void
}