; Function Attrs: mustprogress nofree norecurse nosync nounwind willreturn memory(argmem: readwrite) uwtable
define hidden void @_ZN3ue215ComponentRepeat8optimiseEb(ptr noundef nonnull align 8 captures(none) dereferenceable(96) %0, i1 noundef zeroext %1) unnamed_addr #10 align 2 {
  br i1 %1, label %3, label %7

3:                                                ; preds = %2
  %4 = getelementptr inbounds nuw i8, ptr %0, i64 32
  %5 = load i32, ptr %4, align 8
  %6 = getelementptr inbounds nuw i8, ptr %0, i64 36
  store i32 %5, ptr %6, align 4
  br label %7

7:                                                ; preds = %2, %3
  ret void
}